target datalayout = "e-m:e-p270:32:32-p271:32:32-p272:64:64-i64:64-i128:128-f80:128-n8:16:32:64-S128"
target triple = "x86_64-pc-linux-gnu"

@proto_register_iec60870_101.ett_serial = internal global [2 x ptr] [ptr @ett_iec60870_101, ptr @ett_iec60870_101_ctrlfield], align 16
@.str.365 = private unnamed_addr constant [16 x i8] c"IEC 60870-5-101\00", align 1
@.str.366 = private unnamed_addr constant [13 x i8] c"iec60870_101\00", align 1
@proto_iec60870_101 = internal global i32 0, align 4
@iec60870_101_handle = internal global ptr null, align 8
@.str.375 = private unnamed_addr constant [13 x i8] c"linkaddr_len\00", align 1
@.str.376 = private unnamed_addr constant [33 x i8] c"Length of the Link Address Field\00", align 1
@.str.377 = private unnamed_addr constant [74 x i8] c"Length of the Link Address Field, configurable in '101 and absent in '104\00", align 1
@global_iec60870_link_addr_len = internal global i32 1, align 4
@.str.378 = private unnamed_addr constant [8 x i8] c"cot_len\00", align 1
@.str.379 = private unnamed_addr constant [42 x i8] c"Length of the Cause of Transmission Field\00", align 1
@.str.380 = private unnamed_addr constant [96 x i8] c"Length of the Cause of Transmission Field, configurable in '101 and fixed at 2 octets with '104\00", align 1
@global_iec60870_cot_len = internal global i32 1, align 4
@.str.381 = private unnamed_addr constant [14 x i8] c"asdu_addr_len\00", align 1
@.str.382 = private unnamed_addr constant [40 x i8] c"Length of the Common ASDU Address Field\00", align 1
@.str.383 = private unnamed_addr constant [94 x i8] c"Length of the Common ASDU Address Field, configurable in '101 and fixed at 2 octets with '104\00", align 1
@global_iec60870_asdu_addr_len = internal global i32 1, align 4
@.str.384 = private unnamed_addr constant [13 x i8] c"asdu_ioa_len\00", align 1
@.str.385 = private unnamed_addr constant [47 x i8] c"Length of the Information Object Address Field\00", align 1
@.str.386 = private unnamed_addr constant [101 x i8] c"Length of the Information Object Address Field, configurable in '101 and fixed at 3 octets with '104\00", align 1
@global_iec60870_ioa_len = internal global i32 2, align 4

; Function Attrs: null_pointer_is_valid sspstrong uwtable
define hidden void @proto_register_iec60870_101() #0 {
  %1 = alloca ptr, align 8
  %2 = alloca ptr, align 8
  call void @llvm.lifetime.start.p0(i64 8, ptr %1) #8
  call void @llvm.lifetime.start.p0(i64 8, ptr %2) #8
  %3 = call i32 @proto_register_protocol(ptr noundef @.str.365, ptr noundef @.str.365, ptr noundef @.str.366)
  store i32 %3, ptr @proto_iec60870_101, align 4
  %4 = load i32, ptr @proto_iec60870_101, align 4
  call void @proto_register_field_array(i32 noundef %4, ptr noundef @proto_register_iec60870_101.iec60870_101_hf, i32 noundef 13)
  call void @proto_register_subtree_array(ptr noundef @proto_register_iec60870_101.ett_serial, i32 noundef 2)
  %5 = load i32, ptr @proto_iec60870_101, align 4
  %6 = call ptr @expert_register_protocol(i32 noundef %5)
  store ptr %6, ptr %2, align 8
  %7 = load ptr, ptr %2, align 8
  call void @expert_register_field_array(ptr noundef %7, ptr noundef @proto_register_iec60870_101.ei_101, i32 noundef 3)
  %8 = load i32, ptr @proto_iec60870_101, align 4
  %9 = call ptr @register_dissector(ptr noundef @.str.366, ptr noundef @dissect_iec60870_101_tcp, i32 noundef %8)
  store ptr %9, ptr @iec60870_101_handle, align 8
  %10 = load i32, ptr @proto_iec60870_101, align 4
  %11 = call ptr @prefs_register_protocol(i32 noundef %10, ptr noundef null)
  store ptr %11, ptr %1, align 8
  %12 = load ptr, ptr %1, align 8
  call void @prefs_register_enum_preference(ptr noundef %12, ptr noundef @.str.375, ptr noundef @.str.376, ptr noundef @.str.377, ptr noundef @global_iec60870_link_addr_len, ptr noundef @proto_register_iec60870_101.link_addr_len, i1 noundef zeroext false)
  %13 = load ptr, ptr %1, align 8
  call void @prefs_register_enum_preference(ptr noundef %13, ptr noundef @.str.378, ptr noundef @.str.379, ptr noundef @.str.380, ptr noundef @global_iec60870_cot_len, ptr noundef @proto_register_iec60870_101.cot_len, i1 noundef zeroext false)
  %14 = load ptr, ptr %1, align 8
  call void @prefs_register_enum_preference(ptr noundef %14, ptr noundef @.str.381, ptr noundef @.str.382, ptr noundef @.str.383, ptr noundef @global_iec60870_asdu_addr_len, ptr noundef @proto_register_iec60870_101.asdu_addr_len, i1 noundef zeroext false)
  %15 = load ptr, ptr %1, align 8
  call void @prefs_register_enum_preference(ptr noundef %15, ptr noundef @.str.384, ptr noundef @.str.385, ptr noundef @.str.386, ptr noundef @global_iec60870_ioa_len, ptr noundef @proto_register_iec60870_101.asdu_ioa_len, i1 noundef zeroext false)
  call void @llvm.lifetime.end.p0(i64 8, ptr %2) #8
  call void @llvm.lifetime.end.p0(i64 8, ptr %1) #8
  ret void
}