; Function Attrs: null_pointer_is_valid sspstrong uwtable
define hidden void @proto_register_iec60870_101() local_unnamed_addr #0 {
  %1 = tail call i32 @proto_register_protocol(ptr noundef nonnull @.str.365, ptr noundef nonnull @.str.365, ptr noundef nonnull @.str.366)
  store i32 %1, ptr @proto_iec60870_101, align 4
  tail call void @proto_register_field_array(i32 noundef %1, ptr noundef nonnull @proto_register_iec60870_101.iec60870_101_hf, i32 noundef 13)
  tail call void @proto_register_subtree_array(ptr noundef nonnull @proto_register_iec60870_101.ett_serial, i32 noundef 2)
  %2 = load i32, ptr @proto_iec60870_101, align 4
  %3 = tail call ptr @expert_register_protocol(i32 noundef %2)
  tail call void @expert_register_field_array(ptr noundef %3, ptr noundef nonnull @proto_register_iec60870_101.ei_101, i32 noundef 3)
  %4 = load i32, ptr @proto_iec60870_101, align 4
  %5 = tail call ptr @register_dissector(ptr noundef nonnull @.str.366, ptr noundef nonnull @dissect_iec60870_101_tcp, i32 noundef %4)
  store ptr %5, ptr @iec60870_101_handle, align 8
  %6 = load i32, ptr @proto_iec60870_101, align 4
  %7 = tail call ptr @prefs_register_protocol(i32 noundef %6, ptr noundef null)
  tail call void @prefs_register_enum_preference(ptr noundef %7, ptr noundef nonnull @.str.375, ptr noundef nonnull @.str.376, ptr noundef nonnull @.str.377, ptr noundef nonnull @global_iec60870_link_addr_len, ptr noundef nonnull @proto_register_iec60870_101.link_addr_len, i1 noundef zeroext false)
  tail call void @prefs_register_enum_preference(ptr noundef %7, ptr noundef nonnull @.str.378, ptr noundef nonnull @.str.379, ptr noundef nonnull @.str.380, ptr noundef nonnull @global_iec60870_cot_len, ptr noundef nonnull @proto_register_iec60870_101.cot_len, i1 noundef zeroext false)
  tail call void @prefs_register_enum_preference(ptr noundef %7, ptr noundef nonnull @.str.381, ptr noundef nonnull @.str.382, ptr noundef nonnull @.str.383, ptr noundef nonnull @global_iec60870_asdu_addr_len, ptr noundef nonnull @proto_register_iec60870_101.asdu_addr_len, i1 noundef zeroext false)
  tail call void @prefs_register_enum_preference(ptr noundef %7, ptr noundef nonnull @.str.384, ptr noundef nonnull @.str.385, ptr noundef nonnull @.str.386, ptr noundef nonnull @global_iec60870_ioa_len, ptr noundef nonnull @proto_register_iec60870_101.asdu_ioa_len, i1 noundef zeroext false)
  ret void
}